; Function Attrs: mustprogress uwtable
define internal fastcc noundef i64 @_ZN12_GLOBAL__N_121SysTimeFromTimeStructEP2tmb(ptr noundef nonnull %0, i1 noundef zeroext %1) unnamed_addr #0 personality ptr @__gxx_personality_v0 {
  %3 = load atomic volatile i64, ptr @_ZN12_GLOBAL__N_130g_sys_time_to_time_struct_lockE acquire, align 8
  %.not.i.i = icmp ult i64 %3, 2
  br i1 %.not.i.i, label %4, label %_ZN4base12LazyInstanceINS_4LockENS_8internal23LeakyLazyInstanceTraitsIS1_EEE3GetEv.exit

4:                                                ; preds = %2
  %5 = tail call noundef zeroext i1 @_ZN4base8internal17NeedsLazyInstanceEPl(ptr noundef nonnull align 8 dereferenceable(48) @_ZN12_GLOBAL__N_130g_sys_time_to_time_struct_lockE)
  br i1 %5, label %6, label %_ZN4base12LazyInstanceINS_4LockENS_8internal23LeakyLazyInstanceTraitsIS1_EEE3GetEv.exit

6:                                                ; preds = %4
  tail call void @_ZN4base8internal8LockImplC1Ev(ptr noundef nonnull align 8 dereferenceable(40) getelementptr inbounds nuw (i8, ptr @_ZN12_GLOBAL__N_130g_sys_time_to_time_struct_lockE, i64 8))
  tail call void @_ZN4base8internal20CompleteLazyInstanceEPllPvPFvS2_E(ptr noundef nonnull align 8 dereferenceable(48) @_ZN12_GLOBAL__N_130g_sys_time_to_time_struct_lockE, i64 noundef ptrtoint (ptr getelementptr inbounds nuw (i8, ptr @_ZN12_GLOBAL__N_130g_sys_time_to_time_struct_lockE, i64 8) to i64), ptr noundef nonnull align 8 dereferenceable(48) @_ZN12_GLOBAL__N_130g_sys_time_to_time_struct_lockE, ptr noundef null)
  br label %_ZN4base12LazyInstanceINS_4LockENS_8internal23LeakyLazyInstanceTraitsIS1_EEE3GetEv.exit

_ZN4base12LazyInstanceINS_4LockENS_8internal23LeakyLazyInstanceTraitsIS1_EEE3GetEv.exit: ; preds = %2, %4, %6
  %7 = load atomic volatile i64, ptr @_ZN12_GLOBAL__N_130g_sys_time_to_time_struct_lockE monotonic, align 8
  %8 = inttoptr i64 %7 to ptr
  tail call void @_ZN4base8internal8LockImpl4LockEv(ptr noundef nonnull align 8 dereferenceable(40) %8)
  br i1 %1, label %9, label %11

9:                                                ; preds = %_ZN4base12LazyInstanceINS_4LockENS_8internal23LeakyLazyInstanceTraitsIS1_EEE3GetEv.exit
  %10 = tail call i64 @mktime(ptr noundef nonnull %0) #13
  br label %13

11:                                               ; preds = %_ZN4base12LazyInstanceINS_4LockENS_8internal23LeakyLazyInstanceTraitsIS1_EEE3GetEv.exit
  %12 = tail call i64 @timegm(ptr noundef nonnull %0) #13
  br label %13

13:                                               ; preds = %11, %9
  %.0 = phi i64 [ %10, %9 ], [ %12, %11 ]
  invoke void @_ZN4base8internal8LockImpl6UnlockEv(ptr noundef nonnull align 8 dereferenceable(40) %8)
          to label %_ZN4base8AutoLockD2Ev.exit unwind label %14

14:                                               ; preds = %13
  %15 = landingpad { ptr, i32 }
          catch ptr null
  %16 = extractvalue { ptr, i32 } %15, 0
  tail call void @__clang_call_terminate(ptr %16) #14
  unreachable

_ZN4base8AutoLockD2Ev.exit:                       ; preds = %13
  ret i64 %.0
}